; Function Attrs: nofree norecurse nosync nounwind memory(argmem: readwrite) uwtable
define void @ff_h264_idct_add_10_c(ptr noundef captures(none) %0, ptr noundef captures(none) %1, i32 noundef %2) local_unnamed_addr #0 {
  %4 = load i32, ptr %1, align 4, !tbaa !18
  %5 = add nsw i32 %4, 32
  store i32 %5, ptr %1, align 4, !tbaa !18
  br label %12

.preheader:                                       ; preds = %12
  %6 = ashr i32 %2, 1
  %7 = and i32 %2, -2
  %8 = mul nsw i32 %6, 3
  %9 = sext i32 %6 to i64
  %10 = sext i32 %7 to i64
  %11 = sext i32 %8 to i64
  %invariant.gep = getelementptr i16, ptr %0, i64 %9
  %invariant.gep104 = getelementptr i16, ptr %0, i64 %10
  %invariant.gep106 = getelementptr i16, ptr %0, i64 %11
  br label %31

12:                                               ; preds = %3, %12
  %indvars.iv = phi i64 [ 0, %3 ], [ %indvars.iv.next, %12 ]
  %13 = getelementptr inbounds nuw i32, ptr %1, i64 %indvars.iv
  %14 = load i32, ptr %13, align 4, !tbaa !18
  %15 = getelementptr inbounds nuw i8, ptr %13, i64 32
  %16 = load i32, ptr %15, align 4, !tbaa !18
  %17 = add i32 %16, %14
  %18 = sub i32 %14, %16
  %19 = getelementptr inbounds nuw i8, ptr %13, i64 16
  %20 = load i32, ptr %19, align 4, !tbaa !18
  %21 = ashr i32 %20, 1
  %22 = getelementptr inbounds nuw i8, ptr %13, i64 48
  %23 = load i32, ptr %22, align 4, !tbaa !18
  %24 = sub i32 %21, %23
  %25 = ashr i32 %23, 1
  %26 = add i32 %25, %20
  %27 = add i32 %26, %17
  store i32 %27, ptr %13, align 4, !tbaa !18
  %28 = add i32 %24, %18
  store i32 %28, ptr %19, align 4, !tbaa !18
  %29 = sub i32 %18, %24
  store i32 %29, ptr %15, align 4, !tbaa !18
  %30 = sub i32 %17, %26
  store i32 %30, ptr %22, align 4, !tbaa !18
  %indvars.iv.next = add nuw nsw i64 %indvars.iv, 1
  %exitcond.not = icmp eq i64 %indvars.iv.next, 4
  br i1 %exitcond.not, label %.preheader, label %12, !llvm.loop !57

31:                                               ; preds = %.preheader, %31
  %indvars.iv100 = phi i64 [ 0, %.preheader ], [ %indvars.iv.next101, %31 ]
  %.idx = shl nuw nsw i64 %indvars.iv100, 4
  %32 = getelementptr inbounds nuw i8, ptr %1, i64 %.idx
  %33 = load i32, ptr %32, align 4, !tbaa !18
  %34 = getelementptr inbounds nuw i8, ptr %32, i64 8
  %35 = load i32, ptr %34, align 4, !tbaa !18
  %36 = add i32 %35, %33
  %37 = sub i32 %33, %35
  %38 = getelementptr inbounds nuw i8, ptr %32, i64 4
  %39 = load i32, ptr %38, align 4, !tbaa !18
  %40 = ashr i32 %39, 1
  %41 = getelementptr inbounds nuw i8, ptr %32, i64 12
  %42 = load i32, ptr %41, align 4, !tbaa !18
  %43 = sub i32 %40, %42
  %44 = ashr i32 %42, 1
  %45 = add i32 %44, %39
  %46 = getelementptr inbounds nuw i16, ptr %0, i64 %indvars.iv100
  %47 = load i16, ptr %46, align 2, !tbaa !4
  %48 = zext i16 %47 to i32
  %49 = add i32 %45, %36
  %50 = ashr i32 %49, 6
  %51 = add nsw i32 %50, %48
  %52 = tail call i32 @llvm.smax.i32(i32 %51, i32 0)
  %53 = tail call i32 @llvm.umin.i32(i32 %52, i32 1023)
  %54 = trunc nuw nsw i32 %53 to i16
  store i16 %54, ptr %46, align 2, !tbaa !4
  %gep = getelementptr i16, ptr %invariant.gep, i64 %indvars.iv100
  %55 = load i16, ptr %gep, align 2, !tbaa !4
  %56 = zext i16 %55 to i32
  %57 = add i32 %43, %37
  %58 = ashr i32 %57, 6
  %59 = add nsw i32 %58, %56
  %60 = tail call i32 @llvm.smax.i32(i32 %59, i32 0)
  %61 = tail call i32 @llvm.umin.i32(i32 %60, i32 1023)
  %62 = trunc nuw nsw i32 %61 to i16
  store i16 %62, ptr %gep, align 2, !tbaa !4
  %gep105 = getelementptr i16, ptr %invariant.gep104, i64 %indvars.iv100
  %63 = load i16, ptr %gep105, align 2, !tbaa !4
  %64 = zext i16 %63 to i32
  %65 = sub i32 %37, %43
  %66 = ashr i32 %65, 6
  %67 = add nsw i32 %66, %64
  %68 = tail call i32 @llvm.smax.i32(i32 %67, i32 0)
  %69 = tail call i32 @llvm.umin.i32(i32 %68, i32 1023)
  %70 = trunc nuw nsw i32 %69 to i16
  store i16 %70, ptr %gep105, align 2, !tbaa !4
  %gep107 = getelementptr i16, ptr %invariant.gep106, i64 %indvars.iv100
  %71 = load i16, ptr %gep107, align 2, !tbaa !4
  %72 = zext i16 %71 to i32
  %73 = sub i32 %36, %45
  %74 = ashr i32 %73, 6
  %75 = add nsw i32 %74, %72
  %76 = tail call i32 @llvm.smax.i32(i32 %75, i32 0)
  %77 = tail call i32 @llvm.umin.i32(i32 %76, i32 1023)
  %78 = trunc nuw nsw i32 %77 to i16
  store i16 %78, ptr %gep107, align 2, !tbaa !4
  %indvars.iv.next101 = add nuw nsw i64 %indvars.iv100, 1
  %exitcond103.not = icmp eq i64 %indvars.iv.next101, 4
  br i1 %exitcond103.not, label %79, label %31, !llvm.loop !58

79:                                               ; preds = %31
  tail call void @llvm.memset.p0.i64(ptr noundef nonnull align 4 dereferenceable(64) %1, i8 0, i64 64, i1 false)
  ret void
}